target datalayout = "e-m:e-p270:32:32-p271:32:32-p272:64:64-i64:64-i128:128-f80:128-n8:16:32:64-S128"
target triple = "x86_64-pc-linux-gnu"

%struct._hartip_tap_info = type { i8, i8 }

@.str.370 = private unnamed_addr constant [19 x i8] c"Unknown message %d\00", align 1
@st_str_requests = internal global ptr @.str.379, align 8
@st_node_requests = internal global i32 -1, align 4
@st_str_responses = internal global ptr @.str.380, align 8
@st_node_responses = internal global i32 -1, align 4
@st_str_publish = internal global ptr @.str.381, align 8
@st_node_publish = internal global i32 -1, align 4
@st_str_errors = internal global ptr @.str.382, align 8
@st_node_errors = internal global i32 -1, align 4
@st_str_packets = internal global ptr @.str.383, align 8
@st_node_packets = internal global i32 -1, align 4

; Function Attrs: null_pointer_is_valid sspstrong uwtable
define internal i32 @hartip_stats_tree_packet(ptr noundef %0, ptr noundef %1, ptr noundef %2, ptr noundef %3, i32 noundef %4) #0 {
  %6 = alloca i32, align 4
  %7 = alloca ptr, align 8
  %8 = alloca ptr, align 8
  %9 = alloca ptr, align 8
  %10 = alloca ptr, align 8
  %11 = alloca i32, align 4
  %12 = alloca ptr, align 8
  %13 = alloca ptr, align 8
  %14 = alloca ptr, align 8
  %15 = alloca i32, align 4
  %16 = alloca i32, align 4
  store ptr %0, ptr %7, align 8
  store ptr %1, ptr %8, align 8
  store ptr %2, ptr %9, align 8
  store ptr %3, ptr %10, align 8
  store i32 %4, ptr %11, align 4
  call void @llvm.lifetime.start.p0(i64 8, ptr %12) #5
  %17 = load ptr, ptr %10, align 8
  store ptr %17, ptr %12, align 8
  call void @llvm.lifetime.start.p0(i64 8, ptr %13) #5
  call void @llvm.lifetime.start.p0(i64 8, ptr %14) #5
  call void @llvm.lifetime.start.p0(i64 4, ptr %15) #5
  %18 = load ptr, ptr %12, align 8
  %19 = getelementptr inbounds nuw %struct._hartip_tap_info, ptr %18, i32 0, i32 0
  %20 = load i8, ptr %19, align 1
  %21 = sext i8 %20 to i32
  switch i32 %21, label %34 [
    i32 0, label %22
    i32 1, label %25
    i32 2, label %28
    i32 3, label %31
    i32 15, label %31
  ]

22:                                               ; preds = %5
  %23 = load ptr, ptr @st_str_requests, align 8
  store ptr %23, ptr %13, align 8
  %24 = load i32, ptr @st_node_requests, align 4
  store i32 %24, ptr %15, align 4
  br label %35

25:                                               ; preds = %5
  %26 = load ptr, ptr @st_str_responses, align 8
  store ptr %26, ptr %13, align 8
  %27 = load i32, ptr @st_node_responses, align 4
  store i32 %27, ptr %15, align 4
  br label %35

28:                                               ; preds = %5
  %29 = load ptr, ptr @st_str_publish, align 8
  store ptr %29, ptr %13, align 8
  %30 = load i32, ptr @st_node_publish, align 4
  store i32 %30, ptr %15, align 4
  br label %35

31:                                               ; preds = %5, %5
  %32 = load ptr, ptr @st_str_errors, align 8
  store ptr %32, ptr %13, align 8
  %33 = load i32, ptr @st_node_errors, align 4
  store i32 %33, ptr %15, align 4
  br label %35

34:                                               ; preds = %5
  store i32 0, ptr %6, align 4
  store i32 1, ptr %16, align 4
  br label %52

35:                                               ; preds = %31, %28, %25, %22
  %36 = load ptr, ptr %12, align 8
  %37 = getelementptr inbounds nuw %struct._hartip_tap_info, ptr %36, i32 0, i32 1
  %38 = load i8, ptr %37, align 1
  %39 = sext i8 %38 to i32
  %40 = call ptr @val_to_str(i32 noundef %39, ptr noundef @hartip_message_id_values, ptr noundef @.str.370)
  store ptr %40, ptr %14, align 8
  %41 = load ptr, ptr %7, align 8
  %42 = load ptr, ptr @st_str_packets, align 8
  %43 = call i32 @stats_tree_manip_node_int(i32 noundef 0, ptr noundef %41, ptr noundef %42, i32 noundef 0, i1 noundef zeroext false, i32 noundef 1)
  %44 = load ptr, ptr %7, align 8
  %45 = load ptr, ptr %13, align 8
  %46 = load i32, ptr @st_node_packets, align 4
  %47 = call i32 @stats_tree_manip_node_int(i32 noundef 0, ptr noundef %44, ptr noundef %45, i32 noundef %46, i1 noundef zeroext false, i32 noundef 1)
  %48 = load ptr, ptr %7, align 8
  %49 = load ptr, ptr %14, align 8
  %50 = load i32, ptr %15, align 4
  %51 = call i32 @stats_tree_manip_node_int(i32 noundef 0, ptr noundef %48, ptr noundef %49, i32 noundef %50, i1 noundef zeroext false, i32 noundef 1)
  store i32 1, ptr %6, align 4
  store i32 1, ptr %16, align 4
  br label %52

52:                                               ; preds = %35, %34
  call void @llvm.lifetime.end.p0(i64 4, ptr %15) #5
  call void @llvm.lifetime.end.p0(i64 8, ptr %14) #5
  call void @llvm.lifetime.end.p0(i64 8, ptr %13) #5
  call void @llvm.lifetime.end.p0(i64 8, ptr %12) #5
  %53 = load i32, ptr %6, align 4
  ret i32 %53
}