; Function Attrs: null_pointer_is_valid sspstrong uwtable
define internal range(i32 0, 2) i32 @hartip_stats_tree_packet(ptr noundef %0, ptr readnone captures(none) %1, ptr readnone captures(none) %2, ptr noundef readonly captures(none) %3, i32 %4) #0 {
  %6 = load i8, ptr %3, align 1
  switch i8 %6, label %19 [
    i8 0, label %10
    i8 1, label %7
    i8 2, label %8
    i8 3, label %9
    i8 15, label %9
  ]

7:                                                ; preds = %5
  br label %10

8:                                                ; preds = %5
  br label %10

9:                                                ; preds = %5, %5
  br label %10

10:                                               ; preds = %5, %9, %8, %7
  %.010 = phi ptr [ @.str.382, %9 ], [ @.str.381, %8 ], [ @.str.380, %7 ], [ @.str.379, %5 ]
  %.0.in = phi ptr [ @st_node_errors, %9 ], [ @st_node_publish, %8 ], [ @st_node_responses, %7 ], [ @st_node_requests, %5 ]
  %.0 = load i32, ptr %.0.in, align 4
  %11 = getelementptr inbounds nuw i8, ptr %3, i64 1
  %12 = load i8, ptr %11, align 1
  %13 = sext i8 %12 to i32
  %14 = tail call ptr @val_to_str(i32 noundef %13, ptr noundef nonnull @hartip_message_id_values, ptr noundef nonnull @.str.370)
  %15 = tail call i32 @stats_tree_manip_node_int(i32 noundef 0, ptr noundef %0, ptr noundef nonnull @.str.383, i32 noundef 0, i1 noundef zeroext false, i32 noundef 1)
  %16 = load i32, ptr @st_node_packets, align 4
  %17 = tail call i32 @stats_tree_manip_node_int(i32 noundef 0, ptr noundef %0, ptr noundef nonnull %.010, i32 noundef %16, i1 noundef zeroext false, i32 noundef 1)
  %18 = tail call i32 @stats_tree_manip_node_int(i32 noundef 0, ptr noundef %0, ptr noundef %14, i32 noundef %.0, i1 noundef zeroext false, i32 noundef 1)
  br label %19

19:                                               ; preds = %5, %10
  %.09 = phi i32 [ 1, %10 ], [ 0, %5 ]
  ret i32 %.09
}